target datalayout = "e-m:e-p270:32:32-p271:32:32-p272:64:64-i64:64-i128:128-f80:128-n8:16:32:64-S128"
target triple = "x86_64-pc-linux-gnu"

%class.RsaKeysFrame = type { %class.QFrame, ptr, ptr, ptr }
%class.QFrame = type { %class.QWidget }
%class.QWidget = type { %class.QObject, %class.QPaintDevice.base, ptr }
%class.QObject = type { ptr, %class.QScopedPointer }
%class.QScopedPointer = type { ptr }
%class.QPaintDevice.base = type <{ ptr, i16 }>
%class.Ui_RsaKeysFrame = type { ptr, ptr, ptr, ptr, ptr, ptr, ptr, ptr, ptr, ptr, ptr, ptr, ptr, ptr, ptr, ptr }
%class.QModelIndex = type { i32, i32, i64, ptr }
%class.QVariant = type { %"struct.QVariant::Private" }
%"struct.QVariant::Private" = type { %union.anon, i64 }
%union.anon = type { ptr, [16 x i8] }

; Function Attrs: inlinehint mustprogress nounwind null_pointer_is_valid sspstrong uwtable
define linkonce_odr void @_ZN11QModelIndexC2Ev(ptr noundef align 8 dereferenceable_or_null(24) %0) unnamed_addr #1 comdat align 2 {
  %2 = alloca ptr, align 8
  store ptr %0, ptr %2, align 8
  %3 = load ptr, ptr %2, align 8
  %4 = getelementptr inbounds nuw %class.QModelIndex, ptr %3, i32 0, i32 0
  store i32 -1, ptr %4, align 8
  %5 = getelementptr inbounds nuw %class.QModelIndex, ptr %3, i32 0, i32 1
  store i32 -1, ptr %5, align 4
  %6 = getelementptr inbounds nuw %class.QModelIndex, ptr %3, i32 0, i32 2
  store i64 0, ptr %6, align 8
  %7 = getelementptr inbounds nuw %class.QModelIndex, ptr %3, i32 0, i32 3
  store ptr null, ptr %7, align 8
  ret void
}

; Function Attrs: mustprogress null_pointer_is_valid sspstrong uwtable
define void @_ZN12RsaKeysFrame6addKeyERK7QStringS2_(ptr noundef align 8 dereferenceable_or_null(64) %0, ptr noundef align 8 dereferenceable(24) %1, ptr noundef align 8 dereferenceable(24) %2) #0 align 2 personality ptr @__gxx_personality_v0 {
  %4 = alloca ptr, align 8
  %5 = alloca ptr, align 8
  %6 = alloca ptr, align 8
  %7 = alloca i32, align 4
  %8 = alloca %class.QModelIndex, align 8
  %9 = alloca %class.QModelIndex, align 8
  %10 = alloca %class.QModelIndex, align 8
  %11 = alloca %class.QModelIndex, align 8
  %12 = alloca %class.QVariant, align 8
  %13 = alloca ptr, align 8
  %14 = alloca i32, align 4
  %15 = alloca %class.QModelIndex, align 8
  %16 = alloca %class.QModelIndex, align 8
  %17 = alloca %class.QVariant, align 8
  %18 = alloca %class.QModelIndex, align 8
  %19 = alloca %class.QModelIndex, align 8
  store ptr %0, ptr %4, align 8
  store ptr %1, ptr %5, align 8
  store ptr %2, ptr %6, align 8
  %20 = load ptr, ptr %4, align 8
  call void @llvm.lifetime.start.p0(i64 4, ptr %7) #23
  %21 = getelementptr inbounds nuw %class.RsaKeysFrame, ptr %20, i32 0, i32 2
  %22 = load ptr, ptr %21, align 8
  call void @llvm.lifetime.start.p0(i64 24, ptr %8) #23
  call void @_ZN11QModelIndexC2Ev(ptr noundef align 8 dereferenceable_or_null(24) %8) #23
  %23 = load ptr, ptr %22, align 8
  %24 = getelementptr inbounds ptr, ptr %23, i64 15
  %25 = load ptr, ptr %24, align 8
  %26 = call noundef i32 %25(ptr noundef align 8 dereferenceable_or_null(80) %22, ptr noundef align 8 dereferenceable(24) %8)
  call void @llvm.lifetime.end.p0(i64 24, ptr %8) #23
  store i32 %26, ptr %7, align 4
  %27 = getelementptr inbounds nuw %class.RsaKeysFrame, ptr %20, i32 0, i32 2
  %28 = load ptr, ptr %27, align 8
  %29 = load i32, ptr %7, align 4
  call void @llvm.lifetime.start.p0(i64 24, ptr %9) #23
  call void @_ZN11QModelIndexC2Ev(ptr noundef align 8 dereferenceable_or_null(24) %9) #23
  %30 = load ptr, ptr %28, align 8
  %31 = getelementptr inbounds ptr, ptr %30, i64 31
  %32 = load ptr, ptr %31, align 8
  %33 = call noundef zeroext i1 %32(ptr noundef align 8 dereferenceable_or_null(80) %28, i32 noundef %29, i32 noundef 1, ptr noundef align 8 dereferenceable(24) %9)
  call void @llvm.lifetime.end.p0(i64 24, ptr %9) #23
  %34 = getelementptr inbounds nuw %class.RsaKeysFrame, ptr %20, i32 0, i32 2
  %35 = load ptr, ptr %34, align 8
  call void @llvm.lifetime.start.p0(i64 24, ptr %10) #23
  %36 = getelementptr inbounds nuw %class.RsaKeysFrame, ptr %20, i32 0, i32 2
  %37 = load ptr, ptr %36, align 8
  %38 = load i32, ptr %7, align 4
  call void @llvm.lifetime.start.p0(i64 24, ptr %11) #23
  call void @_ZN11QModelIndexC2Ev(ptr noundef align 8 dereferenceable_or_null(24) %11) #23
  %39 = load ptr, ptr %37, align 8
  %40 = getelementptr inbounds ptr, ptr %39, i64 12
  %41 = load ptr, ptr %40, align 8
  call void %41(ptr dead_on_unwind writable sret(%class.QModelIndex) align 8 %10, ptr noundef align 8 dereferenceable_or_null(16) %37, i32 noundef %38, i32 noundef 0, ptr noundef align 8 dereferenceable(24) %11)
  call void @llvm.lifetime.start.p0(i64 32, ptr %12) #23
  %42 = load ptr, ptr %5, align 8
  call void @_ZN8QVariantC1ERK7QString(ptr noundef align 8 dereferenceable_or_null(32) %12, ptr noundef align 8 dereferenceable(24) %42)
  %43 = load ptr, ptr %35, align 8
  %44 = getelementptr inbounds ptr, ptr %43, i64 19
  %45 = load ptr, ptr %44, align 8
  %46 = invoke noundef zeroext i1 %45(ptr noundef align 8 dereferenceable_or_null(80) %35, ptr noundef align 8 dereferenceable(24) %10, ptr noundef align 8 dereferenceable(32) %12, i32 noundef 2)
          to label %47 unwind label %72

47:                                               ; preds = %3
  call void @_ZN8QVariantD1Ev(ptr noundef align 8 dereferenceable_or_null(32) %12) #23
  call void @llvm.lifetime.end.p0(i64 32, ptr %12) #23
  call void @llvm.lifetime.end.p0(i64 24, ptr %11) #23
  call void @llvm.lifetime.end.p0(i64 24, ptr %10) #23
  %48 = getelementptr inbounds nuw %class.RsaKeysFrame, ptr %20, i32 0, i32 2
  %49 = load ptr, ptr %48, align 8
  call void @llvm.lifetime.start.p0(i64 24, ptr %15) #23
  %50 = getelementptr inbounds nuw %class.RsaKeysFrame, ptr %20, i32 0, i32 2
  %51 = load ptr, ptr %50, align 8
  %52 = load i32, ptr %7, align 4
  call void @llvm.lifetime.start.p0(i64 24, ptr %16) #23
  call void @_ZN11QModelIndexC2Ev(ptr noundef align 8 dereferenceable_or_null(24) %16) #23
  %53 = load ptr, ptr %51, align 8
  %54 = getelementptr inbounds ptr, ptr %53, i64 12
  %55 = load ptr, ptr %54, align 8
  call void %55(ptr dead_on_unwind writable sret(%class.QModelIndex) align 8 %15, ptr noundef align 8 dereferenceable_or_null(16) %51, i32 noundef %52, i32 noundef 1, ptr noundef align 8 dereferenceable(24) %16)
  call void @llvm.lifetime.start.p0(i64 32, ptr %17) #23
  %56 = load ptr, ptr %6, align 8
  call void @_ZN8QVariantC1ERK7QString(ptr noundef align 8 dereferenceable_or_null(32) %17, ptr noundef align 8 dereferenceable(24) %56)
  %57 = load ptr, ptr %49, align 8
  %58 = getelementptr inbounds ptr, ptr %57, i64 19
  %59 = load ptr, ptr %58, align 8
  %60 = invoke noundef zeroext i1 %59(ptr noundef align 8 dereferenceable_or_null(80) %49, ptr noundef align 8 dereferenceable(24) %15, ptr noundef align 8 dereferenceable(32) %17, i32 noundef 2)
          to label %61 unwind label %76

61:                                               ; preds = %47
  call void @_ZN8QVariantD1Ev(ptr noundef align 8 dereferenceable_or_null(32) %17) #23
  call void @llvm.lifetime.end.p0(i64 32, ptr %17) #23
  call void @llvm.lifetime.end.p0(i64 24, ptr %16) #23
  call void @llvm.lifetime.end.p0(i64 24, ptr %15) #23
  %62 = getelementptr inbounds nuw %class.RsaKeysFrame, ptr %20, i32 0, i32 1
  %63 = load ptr, ptr %62, align 8
  %64 = getelementptr inbounds nuw %class.Ui_RsaKeysFrame, ptr %63, i32 0, i32 4
  %65 = load ptr, ptr %64, align 8
  call void @llvm.lifetime.start.p0(i64 24, ptr %18) #23
  %66 = getelementptr inbounds nuw %class.RsaKeysFrame, ptr %20, i32 0, i32 2
  %67 = load ptr, ptr %66, align 8
  %68 = load i32, ptr %7, align 4
  call void @llvm.lifetime.start.p0(i64 24, ptr %19) #23
  call void @_ZN11QModelIndexC2Ev(ptr noundef align 8 dereferenceable_or_null(24) %19) #23
  %69 = load ptr, ptr %67, align 8
  %70 = getelementptr inbounds ptr, ptr %69, i64 12
  %71 = load ptr, ptr %70, align 8
  call void %71(ptr dead_on_unwind writable sret(%class.QModelIndex) align 8 %18, ptr noundef align 8 dereferenceable_or_null(16) %67, i32 noundef %68, i32 noundef 0, ptr noundef align 8 dereferenceable(24) %19)
  call void @_ZN17QAbstractItemView15setCurrentIndexERK11QModelIndex(ptr noundef align 8 dereferenceable_or_null(40) %65, ptr noundef align 8 dereferenceable(24) %18)
  call void @llvm.lifetime.end.p0(i64 24, ptr %19) #23
  call void @llvm.lifetime.end.p0(i64 24, ptr %18) #23
  call void @llvm.lifetime.end.p0(i64 4, ptr %7) #23
  ret void

72:                                               ; preds = %3
  %73 = landingpad { ptr, i32 }
          cleanup
  %74 = extractvalue { ptr, i32 } %73, 0
  store ptr %74, ptr %13, align 8
  %75 = extractvalue { ptr, i32 } %73, 1
  store i32 %75, ptr %14, align 4
  call void @_ZN8QVariantD1Ev(ptr noundef align 8 dereferenceable_or_null(32) %12) #23
  call void @llvm.lifetime.end.p0(i64 32, ptr %12) #23
  call void @llvm.lifetime.end.p0(i64 24, ptr %11) #23
  call void @llvm.lifetime.end.p0(i64 24, ptr %10) #23
  br label %80

76:                                               ; preds = %47
  %77 = landingpad { ptr, i32 }
          cleanup
  %78 = extractvalue { ptr, i32 } %77, 0
  store ptr %78, ptr %13, align 8
  %79 = extractvalue { ptr, i32 } %77, 1
  store i32 %79, ptr %14, align 4
  call void @_ZN8QVariantD1Ev(ptr noundef align 8 dereferenceable_or_null(32) %17) #23
  call void @llvm.lifetime.end.p0(i64 32, ptr %17) #23
  call void @llvm.lifetime.end.p0(i64 24, ptr %16) #23
  call void @llvm.lifetime.end.p0(i64 24, ptr %15) #23
  br label %80

80:                                               ; preds = %76, %72
  call void @llvm.lifetime.end.p0(i64 4, ptr %7) #23
  br label %81

81:                                               ; preds = %80
  %82 = load ptr, ptr %13, align 8
  %83 = load i32, ptr %14, align 4
  %84 = insertvalue { ptr, i32 } poison, ptr %82, 0
  %85 = insertvalue { ptr, i32 } %84, i32 %83, 1
  resume { ptr, i32 } %85
}