; Function Attrs: mustprogress null_pointer_is_valid sspstrong uwtable
define void @_ZN12RsaKeysFrame6addKeyERK7QStringS2_(ptr noundef readonly align 8 captures(none) dereferenceable_or_null(64) %0, ptr noundef align 8 dereferenceable(24) %1, ptr noundef align 8 dereferenceable(24) %2) local_unnamed_addr #0 align 2 personality ptr @__gxx_personality_v0 {
  %4 = alloca %class.QModelIndex, align 8
  %5 = alloca %class.QModelIndex, align 8
  %6 = alloca %class.QModelIndex, align 8
  %7 = alloca %class.QModelIndex, align 8
  %8 = alloca %class.QVariant, align 8
  %9 = alloca %class.QModelIndex, align 8
  %10 = alloca %class.QModelIndex, align 8
  %11 = alloca %class.QVariant, align 8
  %12 = alloca %class.QModelIndex, align 8
  %13 = alloca %class.QModelIndex, align 8
  %14 = getelementptr inbounds nuw i8, ptr %0, i64 48
  %15 = load ptr, ptr %14, align 8
  call void @llvm.lifetime.start.p0(i64 24, ptr nonnull %4) #19
  store i32 -1, ptr %4, align 8
  %16 = getelementptr inbounds nuw i8, ptr %4, i64 4
  store i32 -1, ptr %16, align 4
  %17 = getelementptr inbounds nuw i8, ptr %4, i64 8
  call void @llvm.memset.p0.i64(ptr noundef nonnull align 8 dereferenceable(16) %17, i8 0, i64 16, i1 false)
  %18 = load ptr, ptr %15, align 8
  %19 = getelementptr inbounds nuw i8, ptr %18, i64 120
  %20 = load ptr, ptr %19, align 8
  %21 = call noundef i32 %20(ptr noundef align 8 dereferenceable_or_null(80) %15, ptr noundef nonnull align 8 dereferenceable(24) %4)
  call void @llvm.lifetime.end.p0(i64 24, ptr nonnull %4) #19
  %22 = load ptr, ptr %14, align 8
  call void @llvm.lifetime.start.p0(i64 24, ptr nonnull %5) #19
  store i32 -1, ptr %5, align 8
  %23 = getelementptr inbounds nuw i8, ptr %5, i64 4
  store i32 -1, ptr %23, align 4
  %24 = getelementptr inbounds nuw i8, ptr %5, i64 8
  call void @llvm.memset.p0.i64(ptr noundef nonnull align 8 dereferenceable(16) %24, i8 0, i64 16, i1 false)
  %25 = load ptr, ptr %22, align 8
  %26 = getelementptr inbounds nuw i8, ptr %25, i64 248
  %27 = load ptr, ptr %26, align 8
  %28 = call noundef zeroext i1 %27(ptr noundef align 8 dereferenceable_or_null(80) %22, i32 noundef %21, i32 noundef 1, ptr noundef nonnull align 8 dereferenceable(24) %5)
  call void @llvm.lifetime.end.p0(i64 24, ptr nonnull %5) #19
  %29 = load ptr, ptr %14, align 8
  call void @llvm.lifetime.start.p0(i64 24, ptr nonnull %6) #19
  call void @llvm.lifetime.start.p0(i64 24, ptr nonnull %7) #19
  store i32 -1, ptr %7, align 8
  %30 = getelementptr inbounds nuw i8, ptr %7, i64 4
  store i32 -1, ptr %30, align 4
  %31 = getelementptr inbounds nuw i8, ptr %7, i64 8
  call void @llvm.memset.p0.i64(ptr noundef nonnull align 8 dereferenceable(16) %31, i8 0, i64 16, i1 false)
  %32 = load ptr, ptr %29, align 8
  %33 = getelementptr inbounds nuw i8, ptr %32, i64 96
  %34 = load ptr, ptr %33, align 8
  call void %34(ptr dead_on_unwind nonnull writable sret(%class.QModelIndex) align 8 %6, ptr noundef align 8 dereferenceable_or_null(16) %29, i32 noundef %21, i32 noundef 0, ptr noundef nonnull align 8 dereferenceable(24) %7)
  call void @llvm.lifetime.start.p0(i64 32, ptr nonnull %8) #19
  call void @_ZN8QVariantC1ERK7QString(ptr noundef nonnull align 8 dereferenceable_or_null(32) %8, ptr noundef align 8 dereferenceable(24) %1)
  %35 = load ptr, ptr %29, align 8
  %36 = getelementptr inbounds nuw i8, ptr %35, i64 152
  %37 = load ptr, ptr %36, align 8
  %38 = invoke noundef zeroext i1 %37(ptr noundef align 8 dereferenceable_or_null(80) %29, ptr noundef nonnull align 8 dereferenceable(24) %6, ptr noundef nonnull align 8 dereferenceable(32) %8, i32 noundef 2)
          to label %39 unwind label %61

39:                                               ; preds = %3
  call void @_ZN8QVariantD1Ev(ptr noundef nonnull align 8 dereferenceable_or_null(32) %8) #19
  call void @llvm.lifetime.end.p0(i64 32, ptr nonnull %8) #19
  call void @llvm.lifetime.end.p0(i64 24, ptr nonnull %7) #19
  call void @llvm.lifetime.end.p0(i64 24, ptr nonnull %6) #19
  %40 = load ptr, ptr %14, align 8
  call void @llvm.lifetime.start.p0(i64 24, ptr nonnull %9) #19
  call void @llvm.lifetime.start.p0(i64 24, ptr nonnull %10) #19
  store i32 -1, ptr %10, align 8
  %41 = getelementptr inbounds nuw i8, ptr %10, i64 4
  store i32 -1, ptr %41, align 4
  %42 = getelementptr inbounds nuw i8, ptr %10, i64 8
  call void @llvm.memset.p0.i64(ptr noundef nonnull align 8 dereferenceable(16) %42, i8 0, i64 16, i1 false)
  %43 = load ptr, ptr %40, align 8
  %44 = getelementptr inbounds nuw i8, ptr %43, i64 96
  %45 = load ptr, ptr %44, align 8
  call void %45(ptr dead_on_unwind nonnull writable sret(%class.QModelIndex) align 8 %9, ptr noundef align 8 dereferenceable_or_null(16) %40, i32 noundef %21, i32 noundef 1, ptr noundef nonnull align 8 dereferenceable(24) %10)
  call void @llvm.lifetime.start.p0(i64 32, ptr nonnull %11) #19
  call void @_ZN8QVariantC1ERK7QString(ptr noundef nonnull align 8 dereferenceable_or_null(32) %11, ptr noundef align 8 dereferenceable(24) %2)
  %46 = load ptr, ptr %40, align 8
  %47 = getelementptr inbounds nuw i8, ptr %46, i64 152
  %48 = load ptr, ptr %47, align 8
  %49 = invoke noundef zeroext i1 %48(ptr noundef align 8 dereferenceable_or_null(80) %40, ptr noundef nonnull align 8 dereferenceable(24) %9, ptr noundef nonnull align 8 dereferenceable(32) %11, i32 noundef 2)
          to label %50 unwind label %63

50:                                               ; preds = %39
  call void @_ZN8QVariantD1Ev(ptr noundef nonnull align 8 dereferenceable_or_null(32) %11) #19
  call void @llvm.lifetime.end.p0(i64 32, ptr nonnull %11) #19
  call void @llvm.lifetime.end.p0(i64 24, ptr nonnull %10) #19
  call void @llvm.lifetime.end.p0(i64 24, ptr nonnull %9) #19
  %51 = getelementptr inbounds nuw i8, ptr %0, i64 40
  %52 = load ptr, ptr %51, align 8
  %53 = getelementptr inbounds nuw i8, ptr %52, i64 32
  %54 = load ptr, ptr %53, align 8
  call void @llvm.lifetime.start.p0(i64 24, ptr nonnull %12) #19
  %55 = load ptr, ptr %14, align 8
  call void @llvm.lifetime.start.p0(i64 24, ptr nonnull %13) #19
  store i32 -1, ptr %13, align 8
  %56 = getelementptr inbounds nuw i8, ptr %13, i64 4
  store i32 -1, ptr %56, align 4
  %57 = getelementptr inbounds nuw i8, ptr %13, i64 8
  call void @llvm.memset.p0.i64(ptr noundef nonnull align 8 dereferenceable(16) %57, i8 0, i64 16, i1 false)
  %58 = load ptr, ptr %55, align 8
  %59 = getelementptr inbounds nuw i8, ptr %58, i64 96
  %60 = load ptr, ptr %59, align 8
  call void %60(ptr dead_on_unwind nonnull writable sret(%class.QModelIndex) align 8 %12, ptr noundef align 8 dereferenceable_or_null(16) %55, i32 noundef %21, i32 noundef 0, ptr noundef nonnull align 8 dereferenceable(24) %13)
  call void @_ZN17QAbstractItemView15setCurrentIndexERK11QModelIndex(ptr noundef align 8 dereferenceable_or_null(40) %54, ptr noundef nonnull align 8 dereferenceable(24) %12)
  call void @llvm.lifetime.end.p0(i64 24, ptr nonnull %13) #19
  call void @llvm.lifetime.end.p0(i64 24, ptr nonnull %12) #19
  ret void

61:                                               ; preds = %3
  %62 = landingpad { ptr, i32 }
          cleanup
  call void @_ZN8QVariantD1Ev(ptr noundef nonnull align 8 dereferenceable_or_null(32) %8) #19
  call void @llvm.lifetime.end.p0(i64 32, ptr nonnull %8) #19
  call void @llvm.lifetime.end.p0(i64 24, ptr nonnull %7) #19
  call void @llvm.lifetime.end.p0(i64 24, ptr nonnull %6) #19
  br label %65

63:                                               ; preds = %39
  %64 = landingpad { ptr, i32 }
          cleanup
  call void @_ZN8QVariantD1Ev(ptr noundef nonnull align 8 dereferenceable_or_null(32) %11) #19
  call void @llvm.lifetime.end.p0(i64 32, ptr nonnull %11) #19
  call void @llvm.lifetime.end.p0(i64 24, ptr nonnull %10) #19
  call void @llvm.lifetime.end.p0(i64 24, ptr nonnull %9) #19
  br label %65

65:                                               ; preds = %63, %61
  %.pn = phi { ptr, i32 } [ %64, %63 ], [ %62, %61 ]
  resume { ptr, i32 } %.pn
}